; ModuleID = '44/889.c'
source_filename = "44/889.c"
target datalayout = "e-m:e-p270:32:32-p271:32:32-p272:64:64-i64:64-f80:128-n8:16:32:64-S128"
target triple = "x86_64-pc-linux-gnu"

@.str = private unnamed_addr constant [4 x i8] c"%s\0A\00", align 1

; Function Attrs: noinline nounwind uwtable
define dso_local void @fanxu(i8* %0, i32 %1) #0 {
  %3 = alloca i8*, align 8
  %4 = alloca i32, align 4
  %5 = alloca i32, align 4
  %6 = alloca i32, align 4
  %7 = alloca i8, align 1
  store i8* %0, i8** %3, align 8
  store i32 %1, i32* %4, align 4
  %8 = load i8*, i8** %3, align 8
  %9 = load i8, i8* %8, align 1
  %10 = sext i8 %9 to i32
  %11 = icmp eq i32 %10, 45
  br i1 %11, label %12, label %18

12:                                               ; preds = %2
  %13 = load i8*, i8** %3, align 8
  %14 = getelementptr inbounds i8, i8* %13, i64 1
  %15 = load i8, i8* %14, align 1
  %16 = sext i8 %15 to i32
  %17 = icmp eq i32 %16, 48
  br i1 %17, label %23, label %18

18:                                               ; preds = %12, %2
  %19 = load i8*, i8** %3, align 8
  %20 = load i8, i8* %19, align 1
  %21 = sext i8 %20 to i32
  %22 = icmp eq i32 %21, 48
  br i1 %22, label %23, label %27

23:                                               ; preds = %18, %12
  %24 = load i8*, i8** %3, align 8
  store i8 48, i8* %24, align 1
  %25 = load i8*, i8** %3, align 8
  %26 = getelementptr inbounds i8, i8* %25, i64 1
  store i8 0, i8* %26, align 1
  br label %167

27:                                               ; preds = %18
  %28 = load i8*, i8** %3, align 8
  %29 = load i8, i8* %28, align 1
  %30 = sext i8 %29 to i32
  %31 = icmp eq i32 %30, 45
  br i1 %31, label %32, label %103

32:                                               ; preds = %27
  %33 = load i8*, i8** %3, align 8
  %34 = getelementptr inbounds i8, i8* %33, i64 1
  %35 = load i8, i8* %34, align 1
  %36 = sext i8 %35 to i32
  %37 = icmp ne i32 %36, 48
  br i1 %37, label %38, label %103

38:                                               ; preds = %32
  %39 = load i32, i32* %4, align 4
  %40 = sub nsw i32 %39, 1
  store i32 %40, i32* %5, align 4
  br label %41

41:                                               ; preds = %59, %38
  %42 = load i32, i32* %5, align 4
  %43 = icmp sge i32 %42, 0
  br i1 %43, label %44, label %62

44:                                               ; preds = %41
  %45 = load i8*, i8** %3, align 8
  %46 = load i32, i32* %5, align 4
  %47 = sext i32 %46 to i64
  %48 = getelementptr inbounds i8, i8* %45, i64 %47
  %49 = load i8, i8* %48, align 1
  %50 = sext i8 %49 to i32
  %51 = icmp ne i32 %50, 48
  br i1 %51, label %52, label %58

52:                                               ; preds = %44
  %53 = load i8*, i8** %3, align 8
  %54 = load i32, i32* %5, align 4
  %55 = sext i32 %54 to i64
  %56 = getelementptr inbounds i8, i8* %53, i64 %55
  %57 = getelementptr inbounds i8, i8* %56, i64 1
  store i8 0, i8* %57, align 1
  br label %62

58:                                               ; preds = %44
  br label %59

59:                                               ; preds = %58
  %60 = load i32, i32* %5, align 4
  %61 = add nsw i32 %60, -1
  store i32 %61, i32* %5, align 4
  br label %41

62:                                               ; preds = %52, %41
  %63 = load i32, i32* %5, align 4
  store i32 %63, i32* %6, align 4
  store i32 1, i32* %5, align 4
  br label %64

64:                                               ; preds = %99, %62
  %65 = load i32, i32* %5, align 4
  %66 = load i32, i32* %6, align 4
  %67 = sdiv i32 %66, 2
  %68 = icmp sle i32 %65, %67
  br i1 %68, label %69, label %102

69:                                               ; preds = %64
  %70 = load i8*, i8** %3, align 8
  %71 = load i32, i32* %5, align 4
  %72 = sext i32 %71 to i64
  %73 = getelementptr inbounds i8, i8* %70, i64 %72
  %74 = load i8, i8* %73, align 1
  store i8 %74, i8* %7, align 1
  %75 = load i8*, i8** %3, align 8
  %76 = load i32, i32* %6, align 4
  %77 = sext i32 %76 to i64
  %78 = getelementptr inbounds i8, i8* %75, i64 %77
  %79 = getelementptr inbounds i8, i8* %78, i64 1
  %80 = load i32, i32* %5, align 4
  %81 = sext i32 %80 to i64
  %82 = sub i64 0, %81
  %83 = getelementptr inbounds i8, i8* %79, i64 %82
  %84 = load i8, i8* %83, align 1
  %85 = load i8*, i8** %3, align 8
  %86 = load i32, i32* %5, align 4
  %87 = sext i32 %86 to i64
  %88 = getelementptr inbounds i8, i8* %85, i64 %87
  store i8 %84, i8* %88, align 1
  %89 = load i8, i8* %7, align 1
  %90 = load i8*, i8** %3, align 8
  %91 = load i32, i32* %6, align 4
  %92 = sext i32 %91 to i64
  %93 = getelementptr inbounds i8, i8* %90, i64 %92
  %94 = getelementptr inbounds i8, i8* %93, i64 1
  %95 = load i32, i32* %5, align 4
  %96 = sext i32 %95 to i64
  %97 = sub i64 0, %96
  %98 = getelementptr inbounds i8, i8* %94, i64 %97
  store i8 %89, i8* %98, align 1
  br label %99

99:                                               ; preds = %69
  %100 = load i32, i32* %5, align 4
  %101 = add nsw i32 %100, 1
  store i32 %101, i32* %5, align 4
  br label %64

102:                                              ; preds = %64
  br label %166

103:                                              ; preds = %32, %27
  %104 = load i32, i32* %4, align 4
  %105 = sub nsw i32 %104, 1
  store i32 %105, i32* %5, align 4
  br label %106

106:                                              ; preds = %124, %103
  %107 = load i32, i32* %5, align 4
  %108 = icmp sge i32 %107, 0
  br i1 %108, label %109, label %127

109:                                              ; preds = %106
  %110 = load i8*, i8** %3, align 8
  %111 = load i32, i32* %5, align 4
  %112 = sext i32 %111 to i64
  %113 = getelementptr inbounds i8, i8* %110, i64 %112
  %114 = load i8, i8* %113, align 1
  %115 = sext i8 %114 to i32
  %116 = icmp ne i32 %115, 48
  br i1 %116, label %117, label %123

117:                                              ; preds = %109
  %118 = load i8*, i8** %3, align 8
  %119 = load i32, i32* %5, align 4
  %120 = sext i32 %119 to i64
  %121 = getelementptr inbounds i8, i8* %118, i64 %120
  %122 = getelementptr inbounds i8, i8* %121, i64 1
  store i8 0, i8* %122, align 1
  br label %127

123:                                              ; preds = %109
  br label %124

124:                                              ; preds = %123
  %125 = load i32, i32* %5, align 4
  %126 = add nsw i32 %125, -1
  store i32 %126, i32* %5, align 4
  br label %106

127:                                              ; preds = %117, %106
  %128 = load i32, i32* %5, align 4
  store i32 %128, i32* %6, align 4
  store i32 0, i32* %5, align 4
  br label %129

129:                                              ; preds = %162, %127
  %130 = load i32, i32* %5, align 4
  %131 = load i32, i32* %6, align 4
  %132 = sdiv i32 %131, 2
  %133 = icmp sle i32 %130, %132
  br i1 %133, label %134, label %165

134:                                              ; preds = %129
  %135 = load i8*, i8** %3, align 8
  %136 = load i32, i32* %5, align 4
  %137 = sext i32 %136 to i64
  %138 = getelementptr inbounds i8, i8* %135, i64 %137
  %139 = load i8, i8* %138, align 1
  store i8 %139, i8* %7, align 1
  %140 = load i8*, i8** %3, align 8
  %141 = load i32, i32* %6, align 4
  %142 = sext i32 %141 to i64
  %143 = getelementptr inbounds i8, i8* %140, i64 %142
  %144 = load i32, i32* %5, align 4
  %145 = sext i32 %144 to i64
  %146 = sub i64 0, %145
  %147 = getelementptr inbounds i8, i8* %143, i64 %146
  %148 = load i8, i8* %147, align 1
  %149 = load i8*, i8** %3, align 8
  %150 = load i32, i32* %5, align 4
  %151 = sext i32 %150 to i64
  %152 = getelementptr inbounds i8, i8* %149, i64 %151
  store i8 %148, i8* %152, align 1
  %153 = load i8, i8* %7, align 1
  %154 = load i8*, i8** %3, align 8
  %155 = load i32, i32* %6, align 4
  %156 = sext i32 %155 to i64
  %157 = getelementptr inbounds i8, i8* %154, i64 %156
  %158 = load i32, i32* %5, align 4
  %159 = sext i32 %158 to i64
  %160 = sub i64 0, %159
  %161 = getelementptr inbounds i8, i8* %157, i64 %160
  store i8 %153, i8* %161, align 1
  br label %162

162:                                              ; preds = %134
  %163 = load i32, i32* %5, align 4
  %164 = add nsw i32 %163, 1
  store i32 %164, i32* %5, align 4
  br label %129

165:                                              ; preds = %129
  br label %166

166:                                              ; preds = %165, %102
  br label %167

167:                                              ; preds = %23, %166
  ret void
}

; Function Attrs: noinline nounwind uwtable
define dso_local i32 @main() #0 {
  %1 = alloca i32, align 4
  %2 = alloca i32, align 4
  %3 = alloca i32, align 4
  %4 = alloca [300 x i8], align 16
  store i32 0, i32* %1, align 4
  store i32 0, i32* %2, align 4
  br label %5

5:                                                ; preds = %18, %0
  %6 = load i32, i32* %2, align 4
  %7 = icmp slt i32 %6, 6
  br i1 %7, label %8, label %21

8:                                                ; preds = %5
  %9 = getelementptr inbounds [300 x i8], [300 x i8]* %4, i64 0, i64 0
  %10 = call i32 (i8*, ...) bitcast (i32 (...)* @gets to i32 (i8*, ...)*)(i8* %9)
  %11 = getelementptr inbounds [300 x i8], [300 x i8]* %4, i64 0, i64 0
  %12 = call i64 @strlen(i8* %11) #3
  %13 = trunc i64 %12 to i32
  store i32 %13, i32* %3, align 4
  %14 = getelementptr inbounds [300 x i8], [300 x i8]* %4, i64 0, i64 0
  %15 = load i32, i32* %3, align 4
  call void @fanxu(i8* %14, i32 %15)
  %16 = getelementptr inbounds [300 x i8], [300 x i8]* %4, i64 0, i64 0
  %17 = call i32 (i8*, ...) @printf(i8* getelementptr inbounds ([4 x i8], [4 x i8]* @.str, i64 0, i64 0), i8* %16)
  br label %18

18:                                               ; preds = %8
  %19 = load i32, i32* %2, align 4
  %20 = add nsw i32 %19, 1
  store i32 %20, i32* %2, align 4
  br label %5

21:                                               ; preds = %5
  ret i32 0
}

declare dso_local i32 @gets(...) #1

; Function Attrs: nounwind readonly
declare dso_local i64 @strlen(i8*) #2

declare dso_local i32 @printf(i8*, ...) #1


!llvm.module.flags = !{!0}
!llvm.ident = !{!1}

!0 = !{i32 1, !"wchar_size", i32 4}
!1 = !{!"clang version 10.0.0-4ubuntu1 "}
